; ModuleID = '17/765.c'
source_filename = "17/765.c"
target datalayout = "e-m:e-p270:32:32-p271:32:32-p272:64:64-i64:64-f80:128-n8:16:32:64-S128"
target triple = "x86_64-pc-linux-gnu"

@.str = private unnamed_addr constant [3 x i8] c"%d\00", align 1
@.str.1 = private unnamed_addr constant [3 x i8] c"%s\00", align 1
@.str.2 = private unnamed_addr constant [4 x i8] c"%s\0A\00", align 1
@.str.3 = private unnamed_addr constant [3 x i8] c"%c\00", align 1
@.str.4 = private unnamed_addr constant [2 x i8] c"\0A\00", align 1

; Function Attrs: noinline nounwind uwtable
define dso_local i32 @main() #0 {
  %1 = alloca i32, align 4
  %2 = alloca i32, align 4
  %3 = alloca i32, align 4
  %4 = alloca i32, align 4
  %5 = alloca i32, align 4
  %6 = alloca i32, align 4
  %7 = alloca [200 x i8], align 16
  %8 = alloca [200 x i8], align 16
  %9 = alloca i32, align 4
  store i32 0, i32* %1, align 4
  %10 = call i32 (i8*, ...) @__isoc99_scanf(i8* getelementptr inbounds ([3 x i8], [3 x i8]* @.str, i64 0, i64 0), i32* %2)
  store i32 0, i32* %3, align 4
  br label %11

11:                                               ; preds = %119, %0
  %12 = load i32, i32* %3, align 4
  %13 = load i32, i32* %2, align 4
  %14 = icmp slt i32 %12, %13
  br i1 %14, label %15, label %122

15:                                               ; preds = %11
  %16 = getelementptr inbounds [200 x i8], [200 x i8]* %7, i64 0, i64 0
  %17 = call i32 (i8*, ...) @__isoc99_scanf(i8* getelementptr inbounds ([3 x i8], [3 x i8]* @.str.1, i64 0, i64 0), i8* %16)
  %18 = getelementptr inbounds [200 x i8], [200 x i8]* %7, i64 0, i64 0
  %19 = call i32 (i8*, ...) @printf(i8* getelementptr inbounds ([4 x i8], [4 x i8]* @.str.2, i64 0, i64 0), i8* %18)
  store i32 0, i32* %4, align 4
  br label %20

20:                                               ; preds = %54, %15
  %21 = load i32, i32* %4, align 4
  %22 = sext i32 %21 to i64
  %23 = getelementptr inbounds [200 x i8], [200 x i8]* %7, i64 0, i64 0
  %24 = call i64 @strlen(i8* %23) #3
  %25 = icmp ult i64 %22, %24
  br i1 %25, label %26, label %57

26:                                               ; preds = %20
  %27 = load i32, i32* %4, align 4
  %28 = sext i32 %27 to i64
  %29 = getelementptr inbounds [200 x i8], [200 x i8]* %7, i64 0, i64 %28
  %30 = load i8, i8* %29, align 1
  %31 = sext i8 %30 to i32
  %32 = icmp eq i32 %31, 40
  br i1 %32, label %33, label %37

33:                                               ; preds = %26
  %34 = load i32, i32* %4, align 4
  %35 = sext i32 %34 to i64
  %36 = getelementptr inbounds [200 x i8], [200 x i8]* %8, i64 0, i64 %35
  store i8 36, i8* %36, align 1
  br label %53

37:                                               ; preds = %26
  %38 = load i32, i32* %4, align 4
  %39 = sext i32 %38 to i64
  %40 = getelementptr inbounds [200 x i8], [200 x i8]* %7, i64 0, i64 %39
  %41 = load i8, i8* %40, align 1
  %42 = sext i8 %41 to i32
  %43 = icmp eq i32 %42, 41
  br i1 %43, label %44, label %48

44:                                               ; preds = %37
  %45 = load i32, i32* %4, align 4
  %46 = sext i32 %45 to i64
  %47 = getelementptr inbounds [200 x i8], [200 x i8]* %8, i64 0, i64 %46
  store i8 63, i8* %47, align 1
  br label %52

48:                                               ; preds = %37
  %49 = load i32, i32* %4, align 4
  %50 = sext i32 %49 to i64
  %51 = getelementptr inbounds [200 x i8], [200 x i8]* %8, i64 0, i64 %50
  store i8 32, i8* %51, align 1
  br label %52

52:                                               ; preds = %48, %44
  br label %53

53:                                               ; preds = %52, %33
  br label %54

54:                                               ; preds = %53
  %55 = load i32, i32* %4, align 4
  %56 = add nsw i32 %55, 1
  store i32 %56, i32* %4, align 4
  br label %20

57:                                               ; preds = %20
  store i32 0, i32* %5, align 4
  br label %58

58:                                               ; preds = %97, %57
  %59 = load i32, i32* %5, align 4
  %60 = sext i32 %59 to i64
  %61 = getelementptr inbounds [200 x i8], [200 x i8]* %7, i64 0, i64 0
  %62 = call i64 @strlen(i8* %61) #3
  %63 = icmp ult i64 %60, %62
  br i1 %63, label %64, label %100

64:                                               ; preds = %58
  %65 = load i32, i32* %5, align 4
  %66 = sext i32 %65 to i64
  %67 = getelementptr inbounds [200 x i8], [200 x i8]* %8, i64 0, i64 %66
  %68 = load i8, i8* %67, align 1
  %69 = sext i8 %68 to i32
  %70 = icmp eq i32 %69, 63
  br i1 %70, label %71, label %96

71:                                               ; preds = %64
  %72 = load i32, i32* %5, align 4
  %73 = sub nsw i32 %72, 1
  store i32 %73, i32* %6, align 4
  br label %74

74:                                               ; preds = %92, %71
  %75 = load i32, i32* %6, align 4
  %76 = icmp sge i32 %75, 0
  br i1 %76, label %77, label %95

77:                                               ; preds = %74
  %78 = load i32, i32* %6, align 4
  %79 = sext i32 %78 to i64
  %80 = getelementptr inbounds [200 x i8], [200 x i8]* %8, i64 0, i64 %79
  %81 = load i8, i8* %80, align 1
  %82 = sext i8 %81 to i32
  %83 = icmp eq i32 %82, 36
  br i1 %83, label %84, label %91

84:                                               ; preds = %77
  %85 = load i32, i32* %5, align 4
  %86 = sext i32 %85 to i64
  %87 = getelementptr inbounds [200 x i8], [200 x i8]* %8, i64 0, i64 %86
  store i8 32, i8* %87, align 1
  %88 = load i32, i32* %6, align 4
  %89 = sext i32 %88 to i64
  %90 = getelementptr inbounds [200 x i8], [200 x i8]* %8, i64 0, i64 %89
  store i8 32, i8* %90, align 1
  br label %95

91:                                               ; preds = %77
  br label %92

92:                                               ; preds = %91
  %93 = load i32, i32* %6, align 4
  %94 = add nsw i32 %93, -1
  store i32 %94, i32* %6, align 4
  br label %74

95:                                               ; preds = %84, %74
  br label %96

96:                                               ; preds = %95, %64
  br label %97

97:                                               ; preds = %96
  %98 = load i32, i32* %5, align 4
  %99 = add nsw i32 %98, 1
  store i32 %99, i32* %5, align 4
  br label %58

100:                                              ; preds = %58
  store i32 0, i32* %9, align 4
  br label %101

101:                                              ; preds = %114, %100
  %102 = load i32, i32* %9, align 4
  %103 = sext i32 %102 to i64
  %104 = getelementptr inbounds [200 x i8], [200 x i8]* %7, i64 0, i64 0
  %105 = call i64 @strlen(i8* %104) #3
  %106 = icmp ult i64 %103, %105
  br i1 %106, label %107, label %117

107:                                              ; preds = %101
  %108 = load i32, i32* %9, align 4
  %109 = sext i32 %108 to i64
  %110 = getelementptr inbounds [200 x i8], [200 x i8]* %8, i64 0, i64 %109
  %111 = load i8, i8* %110, align 1
  %112 = sext i8 %111 to i32
  %113 = call i32 (i8*, ...) @printf(i8* getelementptr inbounds ([3 x i8], [3 x i8]* @.str.3, i64 0, i64 0), i32 %112)
  br label %114

114:                                              ; preds = %107
  %115 = load i32, i32* %9, align 4
  %116 = add nsw i32 %115, 1
  store i32 %116, i32* %9, align 4
  br label %101

117:                                              ; preds = %101
  %118 = call i32 (i8*, ...) @printf(i8* getelementptr inbounds ([2 x i8], [2 x i8]* @.str.4, i64 0, i64 0))
  br label %119

119:                                              ; preds = %117
  %120 = load i32, i32* %3, align 4
  %121 = add nsw i32 %120, 1
  store i32 %121, i32* %3, align 4
  br label %11

122:                                              ; preds = %11
  ret i32 0
}

declare dso_local i32 @__isoc99_scanf(i8*, ...) #1

declare dso_local i32 @printf(i8*, ...) #1

; Function Attrs: nounwind readonly
declare dso_local i64 @strlen(i8*) #2


!llvm.module.flags = !{!0}
!llvm.ident = !{!1}

!0 = !{i32 1, !"wchar_size", i32 4}
!1 = !{!"clang version 10.0.0-4ubuntu1 "}
